target datalayout = "e-m:e-p270:32:32-p271:32:32-p272:64:64-i64:64-i128:128-f80:128-n8:16:32:64-S128"
target triple = "x86_64-pc-linux-gnu"

@.str.369 = private unnamed_addr constant [5 x i8] c"Oz|z\00", align 1

; Function Attrs: nounwind uwtable
define internal ptr @unicode_fromencodedobject(ptr noundef %0, ptr noundef %1) #0 {
  %3 = alloca ptr, align 8
  %4 = alloca ptr, align 8
  %5 = alloca ptr, align 8
  %6 = alloca ptr, align 8
  %7 = alloca ptr, align 8
  %8 = alloca ptr, align 8
  %9 = alloca i32, align 4
  store ptr %0, ptr %4, align 8, !tbaa !3
  store ptr %1, ptr %5, align 8, !tbaa !3
  call void @llvm.lifetime.start.p0(i64 8, ptr %6) #7
  call void @llvm.lifetime.start.p0(i64 8, ptr %7) #7
  call void @llvm.lifetime.start.p0(i64 8, ptr %8) #7
  store ptr null, ptr %8, align 8, !tbaa !8
  %10 = load ptr, ptr %5, align 8, !tbaa !3
  %11 = call i32 (ptr, ptr, ...) @PyArg_ParseTuple(ptr noundef %10, ptr noundef @.str.369, ptr noundef %6, ptr noundef %7, ptr noundef %8)
  %12 = icmp ne i32 %11, 0
  br i1 %12, label %14, label %13

13:                                               ; preds = %2
  store ptr null, ptr %3, align 8
  store i32 1, ptr %9, align 4
  br label %27

14:                                               ; preds = %2
  br label %15

15:                                               ; preds = %14
  %16 = load ptr, ptr %6, align 8, !tbaa !3
  %17 = call ptr @Py_GetConstantBorrowed(i32 noundef 0)
  %18 = icmp eq ptr %16, %17
  br i1 %18, label %19, label %20

19:                                               ; preds = %15
  store ptr null, ptr %6, align 8, !tbaa !3
  br label %20

20:                                               ; preds = %19, %15
  br label %21

21:                                               ; preds = %20
  br label %22

22:                                               ; preds = %21
  %23 = load ptr, ptr %6, align 8, !tbaa !3
  %24 = load ptr, ptr %7, align 8, !tbaa !8
  %25 = load ptr, ptr %8, align 8, !tbaa !8
  %26 = call ptr @PyUnicode_FromEncodedObject(ptr noundef %23, ptr noundef %24, ptr noundef %25)
  store ptr %26, ptr %3, align 8
  store i32 1, ptr %9, align 4
  br label %27

27:                                               ; preds = %22, %13
  call void @llvm.lifetime.end.p0(i64 8, ptr %8) #7
  call void @llvm.lifetime.end.p0(i64 8, ptr %7) #7
  call void @llvm.lifetime.end.p0(i64 8, ptr %6) #7
  %28 = load ptr, ptr %3, align 8
  ret ptr %28
}